; Function Attrs: mustprogress nounwind uwtable
define hidden void @_ZN5ZPage5resetE8ZPageAge14ZPageResetType(ptr noundef nonnull align 8 dereferenceable(192) %0, i8 noundef zeroext %1, i32 noundef %2) local_unnamed_addr #0 align 2 {
  %4 = getelementptr inbounds i8, ptr %0, i64 2
  %5 = load i8, ptr %4, align 2
  store i8 %1, ptr %4, align 2
  %6 = getelementptr inbounds i8, ptr %0, i64 152
  store i64 0, ptr %6, align 8
  %7 = icmp eq i8 %1, 15
  %8 = zext i1 %7 to i8
  %9 = getelementptr inbounds i8, ptr %0, i64 1
  store i8 %8, ptr %9, align 1
  %10 = getelementptr inbounds i8, ptr %0, i64 4
  %_ZN11ZGeneration6_youngE.val.i.i.i = load ptr, ptr @_ZN11ZGeneration6_youngE, align 8
  %_ZN11ZGeneration4_oldE.val.i.i.i = load ptr, ptr @_ZN11ZGeneration4_oldE, align 8
  %.0.i.i.i = select i1 %7, ptr %_ZN11ZGeneration4_oldE.val.i.i.i, ptr %_ZN11ZGeneration6_youngE.val.i.i.i
  %11 = getelementptr inbounds i8, ptr %.0.i.i.i, i64 3220
  %12 = load i32, ptr %11, align 4
  store volatile i32 %12, ptr %10, align 4
  %13 = getelementptr inbounds i8, ptr %0, i64 8
  %_ZN11ZGeneration6_youngE.val.i.i = load ptr, ptr @_ZN11ZGeneration6_youngE, align 8
  %_ZN11ZGeneration4_oldE.val.i.i = load ptr, ptr @_ZN11ZGeneration4_oldE, align 8
  %.0.i.i = select i1 %7, ptr %_ZN11ZGeneration6_youngE.val.i.i, ptr %_ZN11ZGeneration4_oldE.val.i.i
  %14 = getelementptr inbounds i8, ptr %.0.i.i, i64 3220
  %15 = load i32, ptr %14, align 4
  store volatile i32 %15, ptr %13, align 8
  %.not = icmp eq i32 %2, 2
  br i1 %.not, label %.split, label %.split10

.split:                                           ; preds = %3
  br i1 %7, label %16, label %.thread

16:                                               ; preds = %.split
  %17 = getelementptr inbounds i8, ptr %0, i64 104
  %18 = tail call noundef zeroext i1 @_ZNK14ZRememberedSet14is_initializedEv(ptr noundef nonnull align 8 dereferenceable(48) %17) #13
  br i1 %18, label %.thread, label %19

19:                                               ; preds = %16
  %20 = getelementptr inbounds i8, ptr %0, i64 16
  %21 = getelementptr inbounds i8, ptr %0, i64 24
  %22 = load i64, ptr %21, align 8
  %23 = load i64, ptr %20, align 8
  %24 = sub i64 %22, %23
  tail call void @_ZN14ZRememberedSet10initializeEm(ptr noundef nonnull align 8 dereferenceable(48) %17, i64 noundef %24) #13
  br label %.thread

.thread:                                          ; preds = %19, %16, %.split
  tail call void @_ZN5ZPage25verify_remset_after_resetE8ZPageAge14ZPageResetType(ptr noundef nonnull align 8 dereferenceable(192) %0, i8 noundef zeroext %5, i32 noundef 2)
  br label %38

.split10:                                         ; preds = %3
  %25 = getelementptr inbounds i8, ptr %0, i64 16
  %26 = load i64, ptr %25, align 8
  %27 = getelementptr inbounds i8, ptr %0, i64 32
  store volatile i64 %26, ptr %27, align 8
  br i1 %7, label %28, label %36

28:                                               ; preds = %.split10
  %29 = getelementptr inbounds i8, ptr %0, i64 104
  %30 = tail call noundef zeroext i1 @_ZNK14ZRememberedSet14is_initializedEv(ptr noundef nonnull align 8 dereferenceable(48) %29) #13
  br i1 %30, label %36, label %31

31:                                               ; preds = %28
  %32 = getelementptr inbounds i8, ptr %0, i64 24
  %33 = load i64, ptr %32, align 8
  %34 = load i64, ptr %25, align 8
  %35 = sub i64 %33, %34
  tail call void @_ZN14ZRememberedSet10initializeEm(ptr noundef nonnull align 8 dereferenceable(48) %29, i64 noundef %35) #13
  br label %36

36:                                               ; preds = %31, %28, %.split10
  tail call void @_ZN5ZPage25verify_remset_after_resetE8ZPageAge14ZPageResetType(ptr noundef nonnull align 8 dereferenceable(192) %0, i8 noundef zeroext %5, i32 noundef %2)
  %.not11 = icmp ne i32 %2, 1
  %37 = icmp ne i8 %5, 15
  %or.cond = and i1 %7, %37
  %or.cond12 = select i1 %.not11, i1 true, i1 %or.cond
  br i1 %or.cond12, label %38, label %40

38:                                               ; preds = %.thread, %36
  %39 = getelementptr inbounds i8, ptr %0, i64 40
  store volatile i32 0, ptr %39, align 8
  br label %40

40:                                               ; preds = %36, %38
  ret void
}